target datalayout = "e-m:e-p270:32:32-p271:32:32-p272:64:64-i64:64-i128:128-f80:128-n8:16:32:64-S128"
target triple = "x86_64-pc-linux-gnu"

%struct.gmx_sel_evaluate_t = type { ptr, ptr, ptr, ptr, ptr }

; Function Attrs: mustprogress nounwind uwtable
define void @_Z22_gmx_sel_evaluate_initP18gmx_sel_evaluate_tP17gmx_sel_mempool_tP15gmx_ana_index_tPK10gmx_mtop_tP10t_trxframeP5t_pbc(ptr noundef %0, ptr noundef %1, ptr noundef %2, ptr noundef %3, ptr noundef %4, ptr noundef %5) #0 {
  %7 = alloca ptr, align 8
  %8 = alloca ptr, align 8
  %9 = alloca ptr, align 8
  %10 = alloca ptr, align 8
  %11 = alloca ptr, align 8
  %12 = alloca ptr, align 8
  store ptr %0, ptr %7, align 8
  store ptr %1, ptr %8, align 8
  store ptr %2, ptr %9, align 8
  store ptr %3, ptr %10, align 8
  store ptr %4, ptr %11, align 8
  store ptr %5, ptr %12, align 8
  %13 = load ptr, ptr %8, align 8
  %14 = load ptr, ptr %7, align 8
  %15 = getelementptr inbounds %struct.gmx_sel_evaluate_t, ptr %14, i32 0, i32 0
  store ptr %13, ptr %15, align 8
  %16 = load ptr, ptr %9, align 8
  %17 = load ptr, ptr %7, align 8
  %18 = getelementptr inbounds %struct.gmx_sel_evaluate_t, ptr %17, i32 0, i32 1
  store ptr %16, ptr %18, align 8
  %19 = load ptr, ptr %10, align 8
  %20 = load ptr, ptr %7, align 8
  %21 = getelementptr inbounds %struct.gmx_sel_evaluate_t, ptr %20, i32 0, i32 2
  store ptr %19, ptr %21, align 8
  %22 = load ptr, ptr %11, align 8
  %23 = load ptr, ptr %7, align 8
  %24 = getelementptr inbounds %struct.gmx_sel_evaluate_t, ptr %23, i32 0, i32 3
  store ptr %22, ptr %24, align 8
  %25 = load ptr, ptr %12, align 8
  %26 = load ptr, ptr %7, align 8
  %27 = getelementptr inbounds %struct.gmx_sel_evaluate_t, ptr %26, i32 0, i32 4
  store ptr %25, ptr %27, align 8
  ret void
}