; Function Attrs: mustprogress nofree norecurse nosync nounwind willreturn memory(argmem: write) uwtable
define void @_Z22_gmx_sel_evaluate_initP18gmx_sel_evaluate_tP17gmx_sel_mempool_tP15gmx_ana_index_tPK10gmx_mtop_tP10t_trxframeP5t_pbc(ptr nocapture noundef writeonly %0, ptr noundef %1, ptr noundef %2, ptr noundef %3, ptr noundef %4, ptr noundef %5) local_unnamed_addr #3 {
  store ptr %1, ptr %0, align 8
  %7 = getelementptr inbounds i8, ptr %0, i64 8
  store ptr %2, ptr %7, align 8
  %8 = getelementptr inbounds i8, ptr %0, i64 16
  store ptr %3, ptr %8, align 8
  %9 = getelementptr inbounds i8, ptr %0, i64 24
  store ptr %4, ptr %9, align 8
  %10 = getelementptr inbounds i8, ptr %0, i64 32
  store ptr %5, ptr %10, align 8
  ret void
}